target datalayout = "e-m:e-p270:32:32-p271:32:32-p272:64:64-i64:64-i128:128-f80:128-n8:16:32:64-S128"
target triple = "x86_64-unknown-linux-gnu"

%struct.QEMUBH = type { ptr, ptr, ptr, ptr, %struct.anon, i32, ptr }
%struct.anon = type { ptr }
%struct.AioContext = type { %struct._GSource, %struct.QemuRecMutex, ptr, %struct.AioHandlerList, %struct.AioHandlerList, i32, %struct.QemuLockCnt, %struct.BHList, %struct.anon.1, i8, %struct.EventNotifier, %struct.anon.2, ptr, i32, i32, ptr, ptr, %struct.io_uring, %struct.AioHandlerSList, %struct.QEMUTimerListGroup, i32, i64, i64, i64, i64, i64, %struct.AioHandlerList, i8, i32, ptr }
%struct._GSource = type { ptr, ptr, ptr, i32, ptr, i32, i32, i32, ptr, ptr, ptr, ptr, ptr }
%struct.QemuRecMutex = type { %struct.QemuMutex }
%struct.QemuMutex = type { %union.pthread_mutex_t, i8 }
%union.pthread_mutex_t = type { %struct.__pthread_mutex_s }
%struct.__pthread_mutex_s = type { i32, i32, i32, i32, i32, i16, i16, %struct.__pthread_internal_list }
%struct.__pthread_internal_list = type { ptr, ptr }
%struct.QemuLockCnt = type { i32 }
%struct.BHList = type { ptr }
%struct.anon.1 = type { ptr, ptr }
%struct.EventNotifier = type { i32, i32, i8 }
%struct.anon.2 = type { ptr }
%struct.io_uring = type { %struct.io_uring_sq, %struct.io_uring_cq, i32, i32, i32, [3 x i32] }
%struct.io_uring_sq = type { ptr, ptr, ptr, ptr, ptr, ptr, ptr, ptr, i32, i32, i64, ptr, [4 x i32] }
%struct.io_uring_cq = type { ptr, ptr, ptr, ptr, ptr, ptr, ptr, i64, ptr, [4 x i32] }
%struct.AioHandlerSList = type { ptr }
%struct.QEMUTimerListGroup = type { [4 x ptr] }
%struct.AioHandlerList = type { ptr }
%struct.Coroutine = type { ptr, ptr, ptr, %struct.anon.3, i64, ptr, ptr, %struct.anon.4, %struct.anon.5, %struct.anon.6 }
%struct.anon.3 = type { ptr }
%struct.anon.4 = type { ptr }
%struct.anon.5 = type { ptr, ptr }
%struct.anon.6 = type { ptr }
%struct.timeval = type { i64, i64 }

@.str = private unnamed_addr constant [21 x i8] c"../qemu/util/async.c\00", align 1
@__func__.aio_notify = private unnamed_addr constant [11 x i8] c"aio_notify\00", align 1
@__func__.aio_co_schedule = private unnamed_addr constant [16 x i8] c"aio_co_schedule\00", align 1
@stderr = external global ptr, align 8
@.str.4 = private unnamed_addr constant [46 x i8] c"%s: Co-routine was already scheduled in '%s'\0A\00", align 1
@__func__.aio_bh_enqueue = private unnamed_addr constant [15 x i8] c"aio_bh_enqueue\00", align 1
@trace_events_enabled_count = external global i32, align 4
@message_with_timestamp = external global i8, align 1
@qemu_loglevel = external global i32, align 4
@_TRACE_AIO_CO_SCHEDULE_DSTATE = external global i16, align 2
@.str.17 = private unnamed_addr constant [43 x i8] c"%d@%zu.%06zu:aio_co_schedule ctx %p co %p\0A\00", align 1
@.str.18 = private unnamed_addr constant [30 x i8] c"aio_co_schedule ctx %p co %p\0A\00", align 1

; Function Attrs: nounwind sspstrong uwtable
define dso_local void @aio_notify(ptr noundef %ctx) #0 {
entry:
  %ctx.addr = alloca ptr, align 8
  %.atomictmp = alloca i8, align 1
  %tmp = alloca i32, align 4
  %atomic-temp = alloca i32, align 4
  store ptr %ctx, ptr %ctx.addr, align 8
  call void asm sideeffect "", "~{memory},~{dirflag},~{fpsr},~{flags}"() #11, !srcloc !13
  fence release
  br label %do.body

do.body:                                          ; preds = %entry
  br label %while.cond

while.cond:                                       ; preds = %do.end, %do.body
  br i1 false, label %while.body, label %while.end

while.body:                                       ; preds = %while.cond
  br label %do.body1

do.body1:                                         ; preds = %while.body
  call void @g_assertion_message_expr(ptr noundef null, ptr noundef @.str, i32 noundef 492, ptr noundef @__func__.aio_notify, ptr noundef null) #10
  unreachable

do.end:                                           ; No predecessors!
  br label %while.cond

while.end:                                        ; preds = %while.cond
  %0 = load ptr, ptr %ctx.addr, align 8
  %notified = getelementptr inbounds %struct.AioContext, ptr %0, i32 0, i32 9
  store i8 1, ptr %.atomictmp, align 1
  %1 = load i8, ptr %.atomictmp, align 1
  store atomic i8 %1, ptr %notified monotonic, align 8
  br label %do.end2

do.end2:                                          ; preds = %while.end
  call void asm sideeffect "", "~{memory},~{dirflag},~{fpsr},~{flags}"() #11, !srcloc !14
  fence seq_cst
  br label %while.cond3

while.cond3:                                      ; preds = %do.end6, %do.end2
  br i1 false, label %while.body4, label %while.end7

while.body4:                                      ; preds = %while.cond3
  br label %do.body5

do.body5:                                         ; preds = %while.body4
  call void @g_assertion_message_expr(ptr noundef null, ptr noundef @.str, i32 noundef 499, ptr noundef @__func__.aio_notify, ptr noundef null) #10
  unreachable

do.end6:                                          ; No predecessors!
  br label %while.cond3

while.end7:                                       ; preds = %while.cond3
  %2 = load ptr, ptr %ctx.addr, align 8
  %notify_me = getelementptr inbounds %struct.AioContext, ptr %2, i32 0, i32 5
  %3 = load atomic i32, ptr %notify_me monotonic, align 8
  store i32 %3, ptr %atomic-temp, align 4
  %4 = load i32, ptr %atomic-temp, align 4
  store i32 %4, ptr %tmp, align 4
  %5 = load i32, ptr %tmp, align 4
  %tobool = icmp ne i32 %5, 0
  br i1 %tobool, label %if.then, label %if.end

if.then:                                          ; preds = %while.end7
  %6 = load ptr, ptr %ctx.addr, align 8
  %notifier = getelementptr inbounds %struct.AioContext, ptr %6, i32 0, i32 10
  %call = call i32 @event_notifier_set(ptr noundef %notifier)
  br label %if.end

if.end:                                           ; preds = %if.then, %while.end7
  ret void
}

; Function Attrs: nounwind sspstrong uwtable
define internal zeroext i1 @qemu_loglevel_mask(i32 noundef %mask) #0 {
entry:
  %mask.addr = alloca i32, align 4
  store i32 %mask, ptr %mask.addr, align 4
  %0 = load i32, ptr @qemu_loglevel, align 4
  %1 = load i32, ptr %mask.addr, align 4
  %and = and i32 %0, %1
  %cmp = icmp ne i32 %and, 0
  ret i1 %cmp
}

; Function Attrs: nounwind sspstrong uwtable
define internal void @aio_bh_enqueue(ptr noundef %bh, i32 noundef %new_flags) #0 {
entry:
  %bh.addr = alloca ptr, align 8
  %new_flags.addr = alloca i32, align 4
  %ctx = alloca ptr, align 8
  %old_flags = alloca i32, align 4
  %.atomictmp = alloca i32, align 4
  %atomic-temp = alloca i32, align 4
  %save_sle_next = alloca ptr, align 8
  %tmp = alloca ptr, align 8
  %_old = alloca ptr, align 8
  %.atomictmp7 = alloca ptr, align 8
  %cmpxchg.bool = alloca i8, align 1
  %tmp9 = alloca ptr, align 8
  store ptr %bh, ptr %bh.addr, align 8
  store i32 %new_flags, ptr %new_flags.addr, align 4
  %0 = load ptr, ptr %bh.addr, align 8
  %ctx1 = getelementptr inbounds %struct.QEMUBH, ptr %0, i32 0, i32 0
  %1 = load ptr, ptr %ctx1, align 8
  store ptr %1, ptr %ctx, align 8
  %2 = load ptr, ptr %bh.addr, align 8
  %flags = getelementptr inbounds %struct.QEMUBH, ptr %2, i32 0, i32 5
  %3 = load i32, ptr %new_flags.addr, align 4
  %or = or i32 1, %3
  store i32 %or, ptr %.atomictmp, align 4
  %4 = load i32, ptr %.atomictmp, align 4
  %5 = atomicrmw or ptr %flags, i32 %4 seq_cst, align 8
  store i32 %5, ptr %atomic-temp, align 4
  %6 = load i32, ptr %atomic-temp, align 4
  store i32 %6, ptr %old_flags, align 4
  %7 = load i32, ptr %old_flags, align 4
  %and = and i32 %7, 1
  %tobool = icmp ne i32 %and, 0
  br i1 %tobool, label %if.end, label %if.then

if.then:                                          ; preds = %entry
  br label %do.body

do.body:                                          ; preds = %if.then
  br label %do.body2

do.body2:                                         ; preds = %cmpxchg.continue, %do.body
  %8 = load ptr, ptr %ctx, align 8
  %bh_list = getelementptr inbounds %struct.AioContext, ptr %8, i32 0, i32 7
  %slh_first = getelementptr inbounds %struct.BHList, ptr %bh_list, i32 0, i32 0
  %9 = load ptr, ptr %slh_first, align 8
  %10 = load ptr, ptr %bh.addr, align 8
  %next = getelementptr inbounds %struct.QEMUBH, ptr %10, i32 0, i32 4
  %sle_next = getelementptr inbounds %struct.anon, ptr %next, i32 0, i32 0
  store ptr %9, ptr %sle_next, align 8
  store ptr %9, ptr %save_sle_next, align 8
  br label %do.cond

do.cond:                                          ; preds = %do.body2
  br label %while.cond

while.cond:                                       ; preds = %do.end, %do.cond
  br i1 false, label %while.body, label %while.end

while.body:                                       ; preds = %while.cond
  br label %do.body3

do.body3:                                         ; preds = %while.body
  call void @g_assertion_message_expr(ptr noundef null, ptr noundef @.str, i32 noundef 93, ptr noundef @__func__.aio_bh_enqueue, ptr noundef null) #10
  unreachable

do.end:                                           ; No predecessors!
  br label %while.cond

while.end:                                        ; preds = %while.cond
  %11 = load ptr, ptr %save_sle_next, align 8
  store ptr %11, ptr %_old, align 8
  %12 = load ptr, ptr %ctx, align 8
  %bh_list5 = getelementptr inbounds %struct.AioContext, ptr %12, i32 0, i32 7
  %slh_first6 = getelementptr inbounds %struct.BHList, ptr %bh_list5, i32 0, i32 0
  %13 = load ptr, ptr %bh.addr, align 8
  store ptr %13, ptr %.atomictmp7, align 8
  %14 = load i64, ptr %_old, align 8
  %15 = load i64, ptr %.atomictmp7, align 8
  %16 = cmpxchg ptr %slh_first6, i64 %14, i64 %15 seq_cst seq_cst, align 8
  %17 = extractvalue { i64, i1 } %16, 0
  %18 = extractvalue { i64, i1 } %16, 1
  br i1 %18, label %cmpxchg.continue, label %cmpxchg.store_expected

cmpxchg.store_expected:                           ; preds = %while.end
  store i64 %17, ptr %_old, align 8
  br label %cmpxchg.continue

cmpxchg.continue:                                 ; preds = %cmpxchg.store_expected, %while.end
  %frombool = zext i1 %18 to i8
  store i8 %frombool, ptr %cmpxchg.bool, align 1
  %19 = load ptr, ptr %_old, align 8
  store ptr %19, ptr %tmp9, align 8
  %20 = load ptr, ptr %tmp9, align 8
  store ptr %20, ptr %tmp, align 8
  %21 = load ptr, ptr %tmp, align 8
  %22 = load ptr, ptr %save_sle_next, align 8
  %cmp = icmp ne ptr %21, %22
  br i1 %cmp, label %do.body2, label %do.end10, !llvm.loop !5

do.end10:                                         ; preds = %cmpxchg.continue
  br label %do.end12

do.end12:                                         ; preds = %do.end10
  br label %if.end

if.end:                                           ; preds = %do.end12, %entry
  %23 = load ptr, ptr %ctx, align 8
  call void @aio_notify(ptr noundef %23)
  call void @icount_notify_exit()
  ret void
}

; Function Attrs: nounwind sspstrong uwtable
define internal void @_nocheck__trace_aio_co_schedule(ptr noundef %ctx, ptr noundef %co) #0 {
entry:
  %ctx.addr = alloca ptr, align 8
  %co.addr = alloca ptr, align 8
  %_now = alloca %struct.timeval, align 8
  store ptr %ctx, ptr %ctx.addr, align 8
  store ptr %co, ptr %co.addr, align 8
  %0 = load i32, ptr @trace_events_enabled_count, align 4
  %tobool = icmp ne i32 %0, 0
  %lnot = xor i1 %tobool, true
  %lnot1 = xor i1 %lnot, true
  %lnot.ext = zext i1 %lnot1 to i32
  %conv = sext i32 %lnot.ext to i64
  %tobool2 = icmp ne i64 %conv, 0
  br i1 %tobool2, label %land.lhs.true, label %if.end11

land.lhs.true:                                    ; preds = %entry
  %1 = load i16, ptr @_TRACE_AIO_CO_SCHEDULE_DSTATE, align 2
  %conv3 = zext i16 %1 to i32
  %tobool4 = icmp ne i32 %conv3, 0
  br i1 %tobool4, label %land.lhs.true5, label %if.end11

land.lhs.true5:                                   ; preds = %land.lhs.true
  %call = call zeroext i1 @qemu_loglevel_mask(i32 noundef 32768)
  br i1 %call, label %if.then, label %if.end11

if.then:                                          ; preds = %land.lhs.true5
  %2 = load i8, ptr @message_with_timestamp, align 1
  %tobool7 = trunc i8 %2 to i1
  br i1 %tobool7, label %if.then8, label %if.else

if.then8:                                         ; preds = %if.then
  %call9 = call i32 @gettimeofday(ptr noundef %_now, ptr noundef null) #11
  %call10 = call i32 @qemu_get_thread_id()
  %tv_sec = getelementptr inbounds %struct.timeval, ptr %_now, i32 0, i32 0
  %3 = load i64, ptr %tv_sec, align 8
  %tv_usec = getelementptr inbounds %struct.timeval, ptr %_now, i32 0, i32 1
  %4 = load i64, ptr %tv_usec, align 8
  %5 = load ptr, ptr %ctx.addr, align 8
  %6 = load ptr, ptr %co.addr, align 8
  call void (ptr, ...) @qemu_log(ptr noundef @.str.17, i32 noundef %call10, i64 noundef %3, i64 noundef %4, ptr noundef %5, ptr noundef %6)
  br label %if.end

if.else:                                          ; preds = %if.then
  %7 = load ptr, ptr %ctx.addr, align 8
  %8 = load ptr, ptr %co.addr, align 8
  call void (ptr, ...) @qemu_log(ptr noundef @.str.18, ptr noundef %7, ptr noundef %8)
  br label %if.end

if.end:                                           ; preds = %if.else, %if.then8
  br label %if.end11

if.end11:                                         ; preds = %if.end, %land.lhs.true5, %land.lhs.true, %entry
  ret void
}

; Function Attrs: nounwind sspstrong uwtable
define dso_local void @aio_context_unref(ptr noundef %ctx) #0 {
entry:
  %ctx.addr = alloca ptr, align 8
  store ptr %ctx, ptr %ctx.addr, align 8
  %0 = load ptr, ptr %ctx.addr, align 8
  %source = getelementptr inbounds %struct.AioContext, ptr %0, i32 0, i32 0
  call void @g_source_unref(ptr noundef %source)
  ret void
}

; Function Attrs: nounwind sspstrong uwtable
define dso_local void @qemu_bh_schedule(ptr noundef %bh) #0 {
entry:
  %bh.addr = alloca ptr, align 8
  store ptr %bh, ptr %bh.addr, align 8
  %0 = load ptr, ptr %bh.addr, align 8
  call void @aio_bh_enqueue(ptr noundef %0, i32 noundef 2)
  ret void
}

; Function Attrs: nounwind sspstrong uwtable
define dso_local void @aio_context_ref(ptr noundef %ctx) #0 {
entry:
  %ctx.addr = alloca ptr, align 8
  store ptr %ctx, ptr %ctx.addr, align 8
  %0 = load ptr, ptr %ctx.addr, align 8
  %source = getelementptr inbounds %struct.AioContext, ptr %0, i32 0, i32 0
  %call = call ptr @g_source_ref(ptr noundef %source)
  ret void
}

; Function Attrs: nounwind sspstrong uwtable
define internal void @trace_aio_co_schedule(ptr noundef %ctx, ptr noundef %co) #0 {
entry:
  %ctx.addr = alloca ptr, align 8
  %co.addr = alloca ptr, align 8
  store ptr %ctx, ptr %ctx.addr, align 8
  store ptr %co, ptr %co.addr, align 8
  %0 = load ptr, ptr %ctx.addr, align 8
  %1 = load ptr, ptr %co.addr, align 8
  call void @_nocheck__trace_aio_co_schedule(ptr noundef %0, ptr noundef %1)
  ret void
}

; Function Attrs: nounwind sspstrong uwtable
define dso_local void @aio_co_schedule(ptr noundef %ctx, ptr noundef %co) #0 {
entry:
  %ctx.addr = alloca ptr, align 8
  %co.addr = alloca ptr, align 8
  %scheduled = alloca ptr, align 8
  %tmp = alloca ptr, align 8
  %_old = alloca ptr, align 8
  %.atomictmp = alloca ptr, align 8
  %cmpxchg.bool = alloca i8, align 1
  %tmp2 = alloca ptr, align 8
  %save_sle_next = alloca ptr, align 8
  %tmp12 = alloca ptr, align 8
  %_old13 = alloca ptr, align 8
  %.atomictmp16 = alloca ptr, align 8
  %cmpxchg.bool17 = alloca i8, align 1
  %tmp22 = alloca ptr, align 8
  store ptr %ctx, ptr %ctx.addr, align 8
  store ptr %co, ptr %co.addr, align 8
  %0 = load ptr, ptr %ctx.addr, align 8
  %1 = load ptr, ptr %co.addr, align 8
  call void @trace_aio_co_schedule(ptr noundef %0, ptr noundef %1)
  br label %while.cond

while.cond:                                       ; preds = %do.end, %entry
  br i1 false, label %while.body, label %while.end

while.body:                                       ; preds = %while.cond
  br label %do.body

do.body:                                          ; preds = %while.body
  call void @g_assertion_message_expr(ptr noundef null, ptr noundef @.str, i32 noundef 633, ptr noundef @__func__.aio_co_schedule, ptr noundef null) #10
  unreachable

do.end:                                           ; No predecessors!
  br label %while.cond

while.end:                                        ; preds = %while.cond
  store ptr null, ptr %_old, align 8
  %2 = load ptr, ptr %co.addr, align 8
  %scheduled1 = getelementptr inbounds %struct.Coroutine, ptr %2, i32 0, i32 6
  store ptr @__func__.aio_co_schedule, ptr %.atomictmp, align 8
  %3 = load i64, ptr %_old, align 8
  %4 = load i64, ptr %.atomictmp, align 8
  %5 = cmpxchg ptr %scheduled1, i64 %3, i64 %4 seq_cst seq_cst, align 8
  %6 = extractvalue { i64, i1 } %5, 0
  %7 = extractvalue { i64, i1 } %5, 1
  br i1 %7, label %cmpxchg.continue, label %cmpxchg.store_expected

cmpxchg.store_expected:                           ; preds = %while.end
  store i64 %6, ptr %_old, align 8
  br label %cmpxchg.continue

cmpxchg.continue:                                 ; preds = %cmpxchg.store_expected, %while.end
  %frombool = zext i1 %7 to i8
  store i8 %frombool, ptr %cmpxchg.bool, align 1
  %8 = load ptr, ptr %_old, align 8
  store ptr %8, ptr %tmp2, align 8
  %9 = load ptr, ptr %tmp2, align 8
  store ptr %9, ptr %tmp, align 8
  %10 = load ptr, ptr %tmp, align 8
  store ptr %10, ptr %scheduled, align 8
  %11 = load ptr, ptr %scheduled, align 8
  %tobool3 = icmp ne ptr %11, null
  br i1 %tobool3, label %if.then, label %if.end

if.then:                                          ; preds = %cmpxchg.continue
  %12 = load ptr, ptr @stderr, align 8
  %13 = load ptr, ptr %scheduled, align 8
  %call = call i32 (ptr, ptr, ...) @fprintf(ptr noundef %12, ptr noundef @.str.4, ptr noundef @__func__.aio_co_schedule, ptr noundef %13)
  call void @abort() #12
  unreachable

if.end:                                           ; preds = %cmpxchg.continue
  %14 = load ptr, ptr %ctx.addr, align 8
  call void @aio_context_ref(ptr noundef %14)
  br label %do.body4

do.body4:                                         ; preds = %if.end
  br label %do.body5

do.body5:                                         ; preds = %cmpxchg.continue19, %do.body4
  %15 = load ptr, ptr %ctx.addr, align 8
  %scheduled_coroutines = getelementptr inbounds %struct.AioContext, ptr %15, i32 0, i32 11
  %slh_first = getelementptr inbounds %struct.anon.2, ptr %scheduled_coroutines, i32 0, i32 0
  %16 = load ptr, ptr %slh_first, align 8
  %17 = load ptr, ptr %co.addr, align 8
  %co_scheduled_next = getelementptr inbounds %struct.Coroutine, ptr %17, i32 0, i32 9
  %sle_next = getelementptr inbounds %struct.anon.6, ptr %co_scheduled_next, i32 0, i32 0
  store ptr %16, ptr %sle_next, align 8
  store ptr %16, ptr %save_sle_next, align 8
  br label %do.cond

do.cond:                                          ; preds = %do.body5
  br label %while.cond6

while.cond6:                                      ; preds = %do.end10, %do.cond
  br i1 false, label %while.body7, label %while.end11

while.body7:                                      ; preds = %while.cond6
  br label %do.body8

do.body8:                                         ; preds = %while.body7
  call void @g_assertion_message_expr(ptr noundef null, ptr noundef @.str, i32 noundef 649, ptr noundef @__func__.aio_co_schedule, ptr noundef null) #10
  unreachable

do.end10:                                         ; No predecessors!
  br label %while.cond6

while.end11:                                      ; preds = %while.cond6
  %18 = load ptr, ptr %save_sle_next, align 8
  store ptr %18, ptr %_old13, align 8
  %19 = load ptr, ptr %ctx.addr, align 8
  %scheduled_coroutines14 = getelementptr inbounds %struct.AioContext, ptr %19, i32 0, i32 11
  %slh_first15 = getelementptr inbounds %struct.anon.2, ptr %scheduled_coroutines14, i32 0, i32 0
  %20 = load ptr, ptr %co.addr, align 8
  store ptr %20, ptr %.atomictmp16, align 8
  %21 = load i64, ptr %_old13, align 8
  %22 = load i64, ptr %.atomictmp16, align 8
  %23 = cmpxchg ptr %slh_first15, i64 %21, i64 %22 seq_cst seq_cst, align 8
  %24 = extractvalue { i64, i1 } %23, 0
  %25 = extractvalue { i64, i1 } %23, 1
  br i1 %25, label %cmpxchg.continue19, label %cmpxchg.store_expected18

cmpxchg.store_expected18:                         ; preds = %while.end11
  store i64 %24, ptr %_old13, align 8
  br label %cmpxchg.continue19

cmpxchg.continue19:                               ; preds = %cmpxchg.store_expected18, %while.end11
  %frombool20 = zext i1 %25 to i8
  store i8 %frombool20, ptr %cmpxchg.bool17, align 1
  %26 = load ptr, ptr %_old13, align 8
  store ptr %26, ptr %tmp22, align 8
  %27 = load ptr, ptr %tmp22, align 8
  store ptr %27, ptr %tmp12, align 8
  %28 = load ptr, ptr %tmp12, align 8
  %29 = load ptr, ptr %save_sle_next, align 8
  %cmp = icmp ne ptr %28, %29
  br i1 %cmp, label %do.body5, label %do.end23, !llvm.loop !18

do.end23:                                         ; preds = %cmpxchg.continue19
  br label %do.end25

do.end25:                                         ; preds = %do.end23
  %30 = load ptr, ptr %ctx.addr, align 8
  %co_schedule_bh = getelementptr inbounds %struct.AioContext, ptr %30, i32 0, i32 12
  %31 = load ptr, ptr %co_schedule_bh, align 8
  call void @qemu_bh_schedule(ptr noundef %31)
  %32 = load ptr, ptr %ctx.addr, align 8
  call void @aio_context_unref(ptr noundef %32)
  ret void
}