; Function Attrs: nounwind sspstrong uwtable
define dso_local void @aio_co_schedule(ptr noundef %ctx, ptr noundef %co) local_unnamed_addr #0 {
entry:
  %_now.i.i = alloca %struct.timeval, align 8
  call void @llvm.lifetime.start.p0(i64 16, ptr nonnull %_now.i.i)
  %0 = load i32, ptr @trace_events_enabled_count, align 4
  %tobool.i.i = icmp ne i32 %0, 0
  %1 = load i16, ptr @_TRACE_AIO_CO_SCHEDULE_DSTATE, align 2
  %tobool4.i.i = icmp ne i16 %1, 0
  %or.cond.i.i = select i1 %tobool.i.i, i1 %tobool4.i.i, i1 false
  br i1 %or.cond.i.i, label %land.lhs.true5.i.i, label %trace_aio_co_schedule.exit

land.lhs.true5.i.i:                               ; preds = %entry
  %2 = load i32, ptr @qemu_loglevel, align 4
  %and.i.i.i = and i32 %2, 32768
  %cmp.i.not.i.i = icmp eq i32 %and.i.i.i, 0
  br i1 %cmp.i.not.i.i, label %trace_aio_co_schedule.exit, label %if.then.i.i

if.then.i.i:                                      ; preds = %land.lhs.true5.i.i
  %3 = load i8, ptr @message_with_timestamp, align 1
  %tobool7.i.i = trunc i8 %3 to i1
  br i1 %tobool7.i.i, label %if.then8.i.i, label %if.else.i.i

if.then8.i.i:                                     ; preds = %if.then.i.i
  %call9.i.i = call i32 @gettimeofday(ptr noundef nonnull %_now.i.i, ptr noundef null) #13
  %call10.i.i = tail call i32 @qemu_get_thread_id() #13
  %4 = load i64, ptr %_now.i.i, align 8
  %tv_usec.i.i = getelementptr inbounds nuw i8, ptr %_now.i.i, i64 8
  %5 = load i64, ptr %tv_usec.i.i, align 8
  tail call void (ptr, ...) @qemu_log(ptr noundef nonnull @.str.17, i32 noundef %call10.i.i, i64 noundef %4, i64 noundef %5, ptr noundef %ctx, ptr noundef %co) #13
  br label %trace_aio_co_schedule.exit

if.else.i.i:                                      ; preds = %if.then.i.i
  tail call void (ptr, ...) @qemu_log(ptr noundef nonnull @.str.18, ptr noundef %ctx, ptr noundef %co) #13
  br label %trace_aio_co_schedule.exit

trace_aio_co_schedule.exit:                       ; preds = %entry, %land.lhs.true5.i.i, %if.then8.i.i, %if.else.i.i
  call void @llvm.lifetime.end.p0(i64 16, ptr nonnull %_now.i.i)
  %scheduled1 = getelementptr inbounds nuw i8, ptr %co, i64 48
  %6 = cmpxchg ptr %scheduled1, i64 0, i64 ptrtoint (ptr @__func__.aio_co_schedule to i64) seq_cst seq_cst, align 8
  %7 = extractvalue { i64, i1 } %6, 1
  br i1 %7, label %if.end, label %if.then

if.then:                                          ; preds = %trace_aio_co_schedule.exit
  %8 = extractvalue { i64, i1 } %6, 0
  %9 = inttoptr i64 %8 to ptr
  %10 = load ptr, ptr @stderr, align 8
  %call = tail call i32 (ptr, ptr, ...) @fprintf(ptr noundef %10, ptr noundef nonnull @.str.4, ptr noundef nonnull @__func__.aio_co_schedule, ptr noundef nonnull %9) #15
  tail call void @abort() #14
  unreachable

if.end:                                           ; preds = %trace_aio_co_schedule.exit
  %call.i = tail call ptr @g_source_ref(ptr noundef %ctx) #13
  %scheduled_coroutines = getelementptr inbounds nuw i8, ptr %ctx, i64 216
  %co_scheduled_next = getelementptr inbounds nuw i8, ptr %co, i64 80
  %11 = ptrtoint ptr %co to i64
  br label %do.body5

do.body5:                                         ; preds = %do.body5, %if.end
  %12 = load ptr, ptr %scheduled_coroutines, align 8
  store ptr %12, ptr %co_scheduled_next, align 8
  %13 = ptrtoint ptr %12 to i64
  %14 = cmpxchg ptr %scheduled_coroutines, i64 %13, i64 %11 seq_cst seq_cst, align 8
  %15 = extractvalue { i64, i1 } %14, 1
  %16 = extractvalue { i64, i1 } %14, 0
  %17 = inttoptr i64 %16 to ptr
  %cmp.not12 = icmp eq ptr %12, %17
  %cmp.not = select i1 %15, i1 true, i1 %cmp.not12
  br i1 %cmp.not, label %do.end25, label %do.body5, !llvm.loop !18

do.end25:                                         ; preds = %do.body5
  %co_schedule_bh = getelementptr inbounds nuw i8, ptr %ctx, i64 224
  %18 = load ptr, ptr %co_schedule_bh, align 8
  %19 = load ptr, ptr %18, align 8
  %flags.i.i = getelementptr inbounds nuw i8, ptr %18, i64 40
  %20 = atomicrmw or ptr %flags.i.i, i32 3 seq_cst, align 8
  %and.i.i = and i32 %20, 1
  %tobool.not.i.i = icmp eq i32 %and.i.i, 0
  br i1 %tobool.not.i.i, label %do.body2.preheader.i.i, label %if.end.i.i

do.body2.preheader.i.i:                           ; preds = %do.end25
  %bh_list.i.i = getelementptr inbounds nuw i8, ptr %19, i64 176
  %next.i.i = getelementptr inbounds nuw i8, ptr %18, i64 32
  %21 = ptrtoint ptr %18 to i64
  br label %do.body2.i.i

do.body2.i.i:                                     ; preds = %do.body2.i.i, %do.body2.preheader.i.i
  %22 = load ptr, ptr %bh_list.i.i, align 8
  store ptr %22, ptr %next.i.i, align 8
  %23 = ptrtoint ptr %22 to i64
  %24 = cmpxchg ptr %bh_list.i.i, i64 %23, i64 %21 seq_cst seq_cst, align 8
  %25 = extractvalue { i64, i1 } %24, 1
  %26 = extractvalue { i64, i1 } %24, 0
  %27 = inttoptr i64 %26 to ptr
  %cmp.not7.i.i = icmp eq ptr %22, %27
  %cmp.not.i.i = select i1 %25, i1 true, i1 %cmp.not7.i.i
  br i1 %cmp.not.i.i, label %if.end.i.i, label %do.body2.i.i, !llvm.loop !5

if.end.i.i:                                       ; preds = %do.body2.i.i, %do.end25
  tail call void asm sideeffect "", "~{memory},~{dirflag},~{fpsr},~{flags}"() #13, !srcloc !7
  fence release
  %notified.i.i.i = getelementptr inbounds nuw i8, ptr %19, i64 200
  store atomic i8 1, ptr %notified.i.i.i monotonic, align 8
  tail call void asm sideeffect "", "~{memory},~{dirflag},~{fpsr},~{flags}"() #13, !srcloc !8
  fence seq_cst
  %notify_me.i.i.i = getelementptr inbounds nuw i8, ptr %19, i64 168
  %28 = load atomic i32, ptr %notify_me.i.i.i monotonic, align 8
  %tobool.not.i.i.i = icmp eq i32 %28, 0
  br i1 %tobool.not.i.i.i, label %qemu_bh_schedule.exit, label %if.then.i.i.i

if.then.i.i.i:                                    ; preds = %if.end.i.i
  %notifier.i.i.i = getelementptr inbounds nuw i8, ptr %19, i64 204
  %call.i.i.i = tail call i32 @event_notifier_set(ptr noundef nonnull %notifier.i.i.i) #13
  br label %qemu_bh_schedule.exit

qemu_bh_schedule.exit:                            ; preds = %if.end.i.i, %if.then.i.i.i
  tail call void @icount_notify_exit() #13
  tail call void @g_source_unref(ptr noundef %ctx) #13
  ret void
}